
main.elf:     file format elf32-avr

Sections:
Idx Name          Size      VMA       LMA       File off  Algn
  0 .data         00000000  00800100  00800100  00000428  2**0
                  CONTENTS, ALLOC, LOAD, DATA
  1 .text         000003b4  00000000  00000000  00000074  2**1
                  CONTENTS, ALLOC, LOAD, READONLY, CODE
  2 .bss          00000023  00800100  00800100  00000428  2**0
                  ALLOC
  3 .comment      00000030  00000000  00000000  00000428  2**0
                  CONTENTS, READONLY
  4 .note.gnu.avr.deviceinfo 00000040  00000000  00000000  00000458  2**2
                  CONTENTS, READONLY
  5 .debug_aranges 00000140  00000000  00000000  00000498  2**0
                  CONTENTS, READONLY, DEBUGGING
  6 .debug_info   00001643  00000000  00000000  000005d8  2**0
                  CONTENTS, READONLY, DEBUGGING
  7 .debug_abbrev 00000b34  00000000  00000000  00001c1b  2**0
                  CONTENTS, READONLY, DEBUGGING
  8 .debug_line   00000a52  00000000  00000000  0000274f  2**0
                  CONTENTS, READONLY, DEBUGGING
  9 .debug_frame  000002a4  00000000  00000000  000031a4  2**2
                  CONTENTS, READONLY, DEBUGGING
 10 .debug_str    00000656  00000000  00000000  00003448  2**0
                  CONTENTS, READONLY, DEBUGGING
 11 .debug_loc    00000812  00000000  00000000  00003a9e  2**0
                  CONTENTS, READONLY, DEBUGGING
 12 .debug_ranges 00000100  00000000  00000000  000042b0  2**0
                  CONTENTS, READONLY, DEBUGGING

Disassembly of section .text:

00000000 <__vectors>:
   0:	0c 94 34 00 	jmp	0x68	; 0x68 <__ctors_end>
   4:	0c 94 51 00 	jmp	0xa2	; 0xa2 <__bad_interrupt>
   8:	0c 94 51 00 	jmp	0xa2	; 0xa2 <__bad_interrupt>
   c:	0c 94 51 00 	jmp	0xa2	; 0xa2 <__bad_interrupt>
  10:	0c 94 51 00 	jmp	0xa2	; 0xa2 <__bad_interrupt>
  14:	0c 94 51 00 	jmp	0xa2	; 0xa2 <__bad_interrupt>
  18:	0c 94 51 00 	jmp	0xa2	; 0xa2 <__bad_interrupt>
  1c:	0c 94 51 00 	jmp	0xa2	; 0xa2 <__bad_interrupt>
  20:	0c 94 51 00 	jmp	0xa2	; 0xa2 <__bad_interrupt>
  24:	0c 94 51 00 	jmp	0xa2	; 0xa2 <__bad_interrupt>
  28:	0c 94 51 00 	jmp	0xa2	; 0xa2 <__bad_interrupt>
  2c:	0c 94 d4 00 	jmp	0x1a8	; 0x1a8 <__vector_11>
  30:	0c 94 51 00 	jmp	0xa2	; 0xa2 <__bad_interrupt>
  34:	0c 94 51 00 	jmp	0xa2	; 0xa2 <__bad_interrupt>
  38:	0c 94 51 00 	jmp	0xa2	; 0xa2 <__bad_interrupt>
  3c:	0c 94 51 00 	jmp	0xa2	; 0xa2 <__bad_interrupt>
  40:	0c 94 51 00 	jmp	0xa2	; 0xa2 <__bad_interrupt>
  44:	0c 94 51 00 	jmp	0xa2	; 0xa2 <__bad_interrupt>
  48:	0c 94 51 00 	jmp	0xa2	; 0xa2 <__bad_interrupt>
  4c:	0c 94 51 00 	jmp	0xa2	; 0xa2 <__bad_interrupt>
  50:	0c 94 51 00 	jmp	0xa2	; 0xa2 <__bad_interrupt>
  54:	0c 94 51 00 	jmp	0xa2	; 0xa2 <__bad_interrupt>
  58:	0c 94 51 00 	jmp	0xa2	; 0xa2 <__bad_interrupt>
  5c:	0c 94 51 00 	jmp	0xa2	; 0xa2 <__bad_interrupt>
  60:	0c 94 51 00 	jmp	0xa2	; 0xa2 <__bad_interrupt>
  64:	0c 94 51 00 	jmp	0xa2	; 0xa2 <__bad_interrupt>

00000068 <__ctors_end>:
  68:	11 24       	eor	r1, r1
  6a:	1f be       	out	0x3f, r1	; 63
  6c:	cf ef       	ldi	r28, 0xFF	; 255
  6e:	d8 e0       	ldi	r29, 0x08	; 8
  70:	de bf       	out	0x3e, r29	; 62
  72:	cd bf       	out	0x3d, r28	; 61

00000074 <__do_copy_data>:
  74:	11 e0       	ldi	r17, 0x01	; 1
  76:	a0 e0       	ldi	r26, 0x00	; 0
  78:	b1 e0       	ldi	r27, 0x01	; 1
  7a:	e4 eb       	ldi	r30, 0xB4	; 180
  7c:	f3 e0       	ldi	r31, 0x03	; 3
  7e:	02 c0       	rjmp	.+4      	; 0x84 <__do_copy_data+0x10>
  80:	05 90       	lpm	r0, Z+
  82:	0d 92       	st	X+, r0
  84:	a0 30       	cpi	r26, 0x00	; 0
  86:	b1 07       	cpc	r27, r17
  88:	d9 f7       	brne	.-10     	; 0x80 <__do_copy_data+0xc>

0000008a <__do_clear_bss>:
  8a:	21 e0       	ldi	r18, 0x01	; 1
  8c:	a0 e0       	ldi	r26, 0x00	; 0
  8e:	b1 e0       	ldi	r27, 0x01	; 1
  90:	01 c0       	rjmp	.+2      	; 0x94 <.do_clear_bss_start>

00000092 <.do_clear_bss_loop>:
  92:	1d 92       	st	X+, r1

00000094 <.do_clear_bss_start>:
  94:	a3 32       	cpi	r26, 0x23	; 35
  96:	b2 07       	cpc	r27, r18
  98:	e1 f7       	brne	.-8      	; 0x92 <.do_clear_bss_loop>
  9a:	0e 94 9e 01 	call	0x33c	; 0x33c <main>
  9e:	0c 94 d8 01 	jmp	0x3b0	; 0x3b0 <_exit>

000000a2 <__bad_interrupt>:
  a2:	0c 94 00 00 	jmp	0	; 0x0 <__vectors>

000000a6 <SCH_Add_Task>:
  Task will be first executed at T = 300 ticks, then 1300, 2300, etc.            
 
-*------------------------------------------------------------------*/

unsigned char SCH_Add_Task(void (*pFunction)(), const unsigned int DELAY, const unsigned int PERIOD)
{
  a6:	0f 93       	push	r16
  a8:	1f 93       	push	r17
  aa:	cf 93       	push	r28
  ac:	df 93       	push	r29
  ae:	8c 01       	movw	r16, r24
   unsigned char Index = 0;

   // First find a gap in the array (if there is one)
   while((SCH_tasks_G[Index].pTask != 0) && (Index < SCH_MAX_TASKS))
  b0:	80 91 00 01 	lds	r24, 0x0100	; 0x800100 <__data_end>
  b4:	90 91 01 01 	lds	r25, 0x0101	; 0x800101 <__data_end+0x1>
  b8:	89 2b       	or	r24, r25
  ba:	81 f0       	breq	.+32     	; 0xdc <SCH_Add_Task+0x36>
  bc:	e0 e0       	ldi	r30, 0x00	; 0
  be:	f1 e0       	ldi	r31, 0x01	; 1
  c0:	21 e0       	ldi	r18, 0x01	; 1
  c2:	30 e0       	ldi	r19, 0x00	; 0
   {
      Index++;
  c4:	82 2f       	mov	r24, r18
unsigned char SCH_Add_Task(void (*pFunction)(), const unsigned int DELAY, const unsigned int PERIOD)
{
   unsigned char Index = 0;

   // First find a gap in the array (if there is one)
   while((SCH_tasks_G[Index].pTask != 0) && (Index < SCH_MAX_TASKS))
  c6:	e9 01       	movw	r28, r18
  c8:	a7 81       	ldd	r26, Z+7	; 0x07
  ca:	b0 85       	ldd	r27, Z+8	; 0x08
  cc:	2f 5f       	subi	r18, 0xFF	; 255
  ce:	3f 4f       	sbci	r19, 0xFF	; 255
  d0:	37 96       	adiw	r30, 0x07	; 7
  d2:	ab 2b       	or	r26, r27
  d4:	b9 f7       	brne	.-18     	; 0xc4 <SCH_Add_Task+0x1e>
   {
      Index++;
   }

   // Have we reached the end of the list?   
   if(Index == SCH_MAX_TASKS)
  d6:	85 30       	cpi	r24, 0x05	; 5
  d8:	21 f4       	brne	.+8      	; 0xe2 <SCH_Add_Task+0x3c>
  da:	15 c0       	rjmp	.+42     	; 0x106 <SCH_Add_Task+0x60>
unsigned char SCH_Add_Task(void (*pFunction)(), const unsigned int DELAY, const unsigned int PERIOD)
{
   unsigned char Index = 0;

   // First find a gap in the array (if there is one)
   while((SCH_tasks_G[Index].pTask != 0) && (Index < SCH_MAX_TASKS))
  dc:	c0 e0       	ldi	r28, 0x00	; 0
  de:	d0 e0       	ldi	r29, 0x00	; 0
 
-*------------------------------------------------------------------*/

unsigned char SCH_Add_Task(void (*pFunction)(), const unsigned int DELAY, const unsigned int PERIOD)
{
   unsigned char Index = 0;
  e0:	80 e0       	ldi	r24, 0x00	; 0
      // Task list is full, return an error code
      return SCH_MAX_TASKS;  
   }

   // If we're here, there is a space in the task array
   SCH_tasks_G[Index].pTask = pFunction;
  e2:	fe 01       	movw	r30, r28
  e4:	ee 0f       	add	r30, r30
  e6:	ff 1f       	adc	r31, r31
  e8:	ee 0f       	add	r30, r30
  ea:	ff 1f       	adc	r31, r31
  ec:	ee 0f       	add	r30, r30
  ee:	ff 1f       	adc	r31, r31
  f0:	ec 1b       	sub	r30, r28
  f2:	fd 0b       	sbc	r31, r29
  f4:	e0 50       	subi	r30, 0x00	; 0
  f6:	ff 4f       	sbci	r31, 0xFF	; 255
  f8:	11 83       	std	Z+1, r17	; 0x01
  fa:	00 83       	st	Z, r16
   SCH_tasks_G[Index].Delay =DELAY;
  fc:	73 83       	std	Z+3, r23	; 0x03
  fe:	62 83       	std	Z+2, r22	; 0x02
   SCH_tasks_G[Index].Period = PERIOD;
 100:	55 83       	std	Z+5, r21	; 0x05
 102:	44 83       	std	Z+4, r20	; 0x04
   SCH_tasks_G[Index].RunMe = 0;
 104:	16 82       	std	Z+6, r1	; 0x06

   // return position of task (to allow later deletion)
   return Index;
}
 106:	df 91       	pop	r29
 108:	cf 91       	pop	r28
 10a:	1f 91       	pop	r17
 10c:	0f 91       	pop	r16
 10e:	08 95       	ret

00000110 <SCH_Delete_Task>:
unsigned char SCH_Delete_Task(const unsigned char TASK_INDEX)
{
   // Return_code can be used for error reporting, NOT USED HERE THOUGH!
   unsigned char Return_code = 0;

   SCH_tasks_G[TASK_INDEX].pTask = 0;
 110:	27 e0       	ldi	r18, 0x07	; 7
 112:	82 9f       	mul	r24, r18
 114:	c0 01       	movw	r24, r0
 116:	11 24       	eor	r1, r1
 118:	fc 01       	movw	r30, r24
 11a:	e0 50       	subi	r30, 0x00	; 0
 11c:	ff 4f       	sbci	r31, 0xFF	; 255
 11e:	11 82       	std	Z+1, r1	; 0x01
 120:	10 82       	st	Z, r1
   SCH_tasks_G[TASK_INDEX].Delay = 0;
 122:	13 82       	std	Z+3, r1	; 0x03
 124:	12 82       	std	Z+2, r1	; 0x02
   SCH_tasks_G[TASK_INDEX].Period = 0;
 126:	15 82       	std	Z+5, r1	; 0x05
 128:	14 82       	std	Z+4, r1	; 0x04
   SCH_tasks_G[TASK_INDEX].RunMe = 0;
 12a:	16 82       	std	Z+6, r1	; 0x06

   return Return_code;
}
 12c:	80 e0       	ldi	r24, 0x00	; 0
 12e:	08 95       	ret

00000130 <SCH_Dispatch_Tasks>:
  This function must be called (repeatedly) from the main loop.

-*------------------------------------------------------------------*/

void SCH_Dispatch_Tasks(void)
{
 130:	ef 92       	push	r14
 132:	ff 92       	push	r15
 134:	1f 93       	push	r17
 136:	cf 93       	push	r28
 138:	df 93       	push	r29
 13a:	c0 e0       	ldi	r28, 0x00	; 0
 13c:	d1 e0       	ldi	r29, 0x01	; 1
   unsigned char Index;

   // Dispatches (runs) the next task (if one is ready)
   for(Index = 0; Index < SCH_MAX_TASKS; Index++)
 13e:	10 e0       	ldi	r17, 0x00	; 0
   {
      if((SCH_tasks_G[Index].RunMe > 0) && (SCH_tasks_G[Index].pTask != 0))
 140:	8e 81       	ldd	r24, Y+6	; 0x06
 142:	88 23       	and	r24, r24
 144:	79 f0       	breq	.+30     	; 0x164 <SCH_Dispatch_Tasks+0x34>
 146:	e8 81       	ld	r30, Y
 148:	f9 81       	ldd	r31, Y+1	; 0x01
 14a:	30 97       	sbiw	r30, 0x00	; 0
 14c:	59 f0       	breq	.+22     	; 0x164 <SCH_Dispatch_Tasks+0x34>
      {
         (*SCH_tasks_G[Index].pTask)();  // Run the task
 14e:	09 95       	icall
         SCH_tasks_G[Index].RunMe -= 1;   // Reset / reduce RunMe flag
 150:	8e 81       	ldd	r24, Y+6	; 0x06
 152:	81 50       	subi	r24, 0x01	; 1
 154:	8e 83       	std	Y+6, r24	; 0x06

         // Periodic tasks will automatically run again
         // - if this is a 'one shot' task, remove it from the array
         if(SCH_tasks_G[Index].Period == 0)
 156:	8c 81       	ldd	r24, Y+4	; 0x04
 158:	9d 81       	ldd	r25, Y+5	; 0x05
 15a:	89 2b       	or	r24, r25
 15c:	19 f4       	brne	.+6      	; 0x164 <SCH_Dispatch_Tasks+0x34>
         {
            SCH_Delete_Task(Index);
 15e:	81 2f       	mov	r24, r17
 160:	0e 94 88 00 	call	0x110	; 0x110 <SCH_Delete_Task>
void SCH_Dispatch_Tasks(void)
{
   unsigned char Index;

   // Dispatches (runs) the next task (if one is ready)
   for(Index = 0; Index < SCH_MAX_TASKS; Index++)
 164:	1f 5f       	subi	r17, 0xFF	; 255
 166:	27 96       	adiw	r28, 0x07	; 7
 168:	15 30       	cpi	r17, 0x05	; 5
 16a:	51 f7       	brne	.-44     	; 0x140 <SCH_Dispatch_Tasks+0x10>
         {
            SCH_Delete_Task(Index);
         }
      }
   }
}
 16c:	df 91       	pop	r29
 16e:	cf 91       	pop	r28
 170:	1f 91       	pop	r17
 172:	ff 90       	pop	r15
 174:	ef 90       	pop	r14
 176:	08 95       	ret

00000178 <SCH_Init_T1>:
  You must call this function before using the scheduler.  

-*------------------------------------------------------------------*/

void SCH_Init_T1(void)
{
 178:	cf 93       	push	r28
   unsigned char i;

   for(i = 0; i < SCH_MAX_TASKS; i++)
 17a:	c0 e0       	ldi	r28, 0x00	; 0
   {
      SCH_Delete_Task(i);
 17c:	8c 2f       	mov	r24, r28
 17e:	0e 94 88 00 	call	0x110	; 0x110 <SCH_Delete_Task>

void SCH_Init_T1(void)
{
   unsigned char i;

   for(i = 0; i < SCH_MAX_TASKS; i++)
 182:	cf 5f       	subi	r28, 0xFF	; 255
 184:	c5 30       	cpi	r28, 0x05	; 5
 186:	d1 f7       	brne	.-12     	; 0x17c <SCH_Init_T1+0x4>

   // Set up Timer 1
   // Values for 1ms and 10ms ticks are provided for various crystals

   // Hier moet de timer periode worden aangepast ....!
   OCR1A = (uint16_t)625;   		     // 10ms = (256/16.000.000) * 625
 188:	81 e7       	ldi	r24, 0x71	; 113
 18a:	92 e0       	ldi	r25, 0x02	; 2
 18c:	90 93 89 00 	sts	0x0089, r25	; 0x800089 <__TEXT_REGION_LENGTH__+0x7e0089>
 190:	80 93 88 00 	sts	0x0088, r24	; 0x800088 <__TEXT_REGION_LENGTH__+0x7e0088>
   TCCR1B = (1 << CS12) | (1 << WGM12);  // prescale op 64, top counter = value OCR1A (CTC mode)
 194:	8c e0       	ldi	r24, 0x0C	; 12
 196:	80 93 81 00 	sts	0x0081, r24	; 0x800081 <__TEXT_REGION_LENGTH__+0x7e0081>
   TIMSK1 = 1 << OCIE1A;   		     // Timer 1 Output Compare A Match Interrupt Enable
 19a:	82 e0       	ldi	r24, 0x02	; 2
 19c:	80 93 6f 00 	sts	0x006F, r24	; 0x80006f <__TEXT_REGION_LENGTH__+0x7e006f>
}
 1a0:	cf 91       	pop	r28
 1a2:	08 95       	ret

000001a4 <SCH_Start>:
 
-*------------------------------------------------------------------*/

void SCH_Start(void)
{
      sei();
 1a4:	78 94       	sei
 1a6:	08 95       	ret

000001a8 <__vector_11>:
  determined by the timer settings in SCH_Init_T1().

-*------------------------------------------------------------------*/

ISR(TIMER1_COMPA_vect)
{
 1a8:	1f 92       	push	r1
 1aa:	0f 92       	push	r0
 1ac:	0f b6       	in	r0, 0x3f	; 63
 1ae:	0f 92       	push	r0
 1b0:	11 24       	eor	r1, r1
 1b2:	2f 93       	push	r18
 1b4:	3f 93       	push	r19
 1b6:	8f 93       	push	r24
 1b8:	9f 93       	push	r25
 1ba:	af 93       	push	r26
 1bc:	bf 93       	push	r27
 1be:	ef 93       	push	r30
 1c0:	ff 93       	push	r31
 1c2:	e0 e0       	ldi	r30, 0x00	; 0
 1c4:	f1 e0       	ldi	r31, 0x01	; 1
 1c6:	23 e2       	ldi	r18, 0x23	; 35
 1c8:	31 e0       	ldi	r19, 0x01	; 1
   unsigned char Index;
   for(Index = 0; Index < SCH_MAX_TASKS; Index++)
   {
      // Check if there is a task at this location
      if(SCH_tasks_G[Index].pTask)
 1ca:	80 81       	ld	r24, Z
 1cc:	91 81       	ldd	r25, Z+1	; 0x01
 1ce:	89 2b       	or	r24, r25
 1d0:	91 f0       	breq	.+36     	; 0x1f6 <__vector_11+0x4e>
      {
         if(SCH_tasks_G[Index].Delay == 0)
 1d2:	82 81       	ldd	r24, Z+2	; 0x02
 1d4:	93 81       	ldd	r25, Z+3	; 0x03
 1d6:	00 97       	sbiw	r24, 0x00	; 0
 1d8:	59 f4       	brne	.+22     	; 0x1f0 <__vector_11+0x48>
         {
            // The task is due to run, Inc. the 'RunMe' flag
            SCH_tasks_G[Index].RunMe += 1;
 1da:	86 81       	ldd	r24, Z+6	; 0x06
 1dc:	8f 5f       	subi	r24, 0xFF	; 255
 1de:	86 83       	std	Z+6, r24	; 0x06

            if(SCH_tasks_G[Index].Period)
 1e0:	84 81       	ldd	r24, Z+4	; 0x04
 1e2:	95 81       	ldd	r25, Z+5	; 0x05
 1e4:	00 97       	sbiw	r24, 0x00	; 0
 1e6:	39 f0       	breq	.+14     	; 0x1f6 <__vector_11+0x4e>
            {
               // Schedule periodic tasks to run again
               SCH_tasks_G[Index].Delay = SCH_tasks_G[Index].Period;
               SCH_tasks_G[Index].Delay -= 1;
 1e8:	01 97       	sbiw	r24, 0x01	; 1
 1ea:	93 83       	std	Z+3, r25	; 0x03
 1ec:	82 83       	std	Z+2, r24	; 0x02
 1ee:	03 c0       	rjmp	.+6      	; 0x1f6 <__vector_11+0x4e>
            }
         }
         else
         {
            // Not yet ready to run: just decrement the delay
            SCH_tasks_G[Index].Delay -= 1;
 1f0:	01 97       	sbiw	r24, 0x01	; 1
 1f2:	93 83       	std	Z+3, r25	; 0x03
 1f4:	82 83       	std	Z+2, r24	; 0x02
 1f6:	37 96       	adiw	r30, 0x07	; 7
-*------------------------------------------------------------------*/

ISR(TIMER1_COMPA_vect)
{
   unsigned char Index;
   for(Index = 0; Index < SCH_MAX_TASKS; Index++)
 1f8:	e2 17       	cp	r30, r18
 1fa:	f3 07       	cpc	r31, r19
 1fc:	31 f7       	brne	.-52     	; 0x1ca <__vector_11+0x22>
            // Not yet ready to run: just decrement the delay
            SCH_tasks_G[Index].Delay -= 1;
         }
      }
   }
}
 1fe:	ff 91       	pop	r31
 200:	ef 91       	pop	r30
 202:	bf 91       	pop	r27
 204:	af 91       	pop	r26
 206:	9f 91       	pop	r25
 208:	8f 91       	pop	r24
 20a:	3f 91       	pop	r19
 20c:	2f 91       	pop	r18
 20e:	0f 90       	pop	r0
 210:	0f be       	out	0x3f, r0	; 63
 212:	0f 90       	pop	r0
 214:	1f 90       	pop	r1
 216:	18 95       	reti

00000218 <USART_receive>:
			case 0x06:
				USART_putstring(":6:");
				return;
			
			case 0x07:
				USART_putstring(":7:");
 218:	e0 ec       	ldi	r30, 0xC0	; 192
 21a:	f0 e0       	ldi	r31, 0x00	; 0
 21c:	80 81       	ld	r24, Z
 21e:	88 23       	and	r24, r24
 220:	ec f7       	brge	.-6      	; 0x21c <USART_receive+0x4>
 222:	80 91 c6 00 	lds	r24, 0x00C6	; 0x8000c6 <__TEXT_REGION_LENGTH__+0x7e00c6>
 226:	08 95       	ret

00000228 <USART_send>:
 228:	e0 ec       	ldi	r30, 0xC0	; 192
 22a:	f0 e0       	ldi	r31, 0x00	; 0
 22c:	90 81       	ld	r25, Z
 22e:	95 ff       	sbrs	r25, 5
 230:	fd cf       	rjmp	.-6      	; 0x22c <USART_send+0x4>
 232:	80 93 c6 00 	sts	0x00C6, r24	; 0x8000c6 <__TEXT_REGION_LENGTH__+0x7e00c6>
 236:	08 95       	ret

00000238 <USART_putstring>:
 238:	cf 93       	push	r28
 23a:	df 93       	push	r29
 23c:	ec 01       	movw	r28, r24
 23e:	88 81       	ld	r24, Y
 240:	88 23       	and	r24, r24
 242:	31 f0       	breq	.+12     	; 0x250 <USART_putstring+0x18>
 244:	21 96       	adiw	r28, 0x01	; 1
 246:	0e 94 14 01 	call	0x228	; 0x228 <USART_send>
 24a:	89 91       	ld	r24, Y+
 24c:	81 11       	cpse	r24, r1
 24e:	fb cf       	rjmp	.-10     	; 0x246 <USART_putstring+0xe>
 250:	df 91       	pop	r29
 252:	cf 91       	pop	r28
 254:	08 95       	ret

00000256 <test>:
 256:	cf 93       	push	r28
 258:	df 93       	push	r29
 25a:	00 d0       	rcall	.+0      	; 0x25c <test+0x6>
 25c:	00 d0       	rcall	.+0      	; 0x25e <test+0x8>
 25e:	1f 92       	push	r1
 260:	cd b7       	in	r28, 0x3d	; 61
 262:	de b7       	in	r29, 0x3e	; 62
 264:	0e 94 0c 01 	call	0x218	; 0x218 <USART_receive>
 268:	4a e0       	ldi	r20, 0x0A	; 10
 26a:	be 01       	movw	r22, r28
 26c:	6f 5f       	subi	r22, 0xFF	; 255
 26e:	7f 4f       	sbci	r23, 0xFF	; 255
 270:	90 e0       	ldi	r25, 0x00	; 0
 272:	0e 94 a3 01 	call	0x346	; 0x346 <__itoa_ncheck>
 276:	ce 01       	movw	r24, r28
 278:	01 96       	adiw	r24, 0x01	; 1
 27a:	0e 94 1c 01 	call	0x238	; 0x238 <USART_putstring>
 27e:	0f 90       	pop	r0
 280:	0f 90       	pop	r0
 282:	0f 90       	pop	r0
 284:	0f 90       	pop	r0
 286:	0f 90       	pop	r0
 288:	df 91       	pop	r29
 28a:	cf 91       	pop	r28
 28c:	08 95       	ret

0000028e <newRegel>:
	if(data == running){USART_putstring("running");}
	USART_putstring(" ");
}

void newRegel(){
	USART_send('\r');
 28e:	8d e0       	ldi	r24, 0x0D	; 13
 290:	0e 94 14 01 	call	0x228	; 0x228 <USART_send>
	USART_send('\n');
 294:	8a e0       	ldi	r24, 0x0A	; 10
 296:	0e 94 14 01 	call	0x228	; 0x228 <USART_send>
 29a:	08 95       	ret

0000029c <init_connectie>:
void init_scheduler();
void init_lampjes();

void init_connectie(){
	// disable U2X mode
	UCSR0A = 0;
 29c:	10 92 c0 00 	sts	0x00C0, r1	; 0x8000c0 <__TEXT_REGION_LENGTH__+0x7e00c0>
	// Enable receiver and transmitter
	UCSR0B = (1<<RXEN0)|(1<<TXEN0);
 2a0:	88 e1       	ldi	r24, 0x18	; 24
 2a2:	80 93 c1 00 	sts	0x00C1, r24	; 0x8000c1 <__TEXT_REGION_LENGTH__+0x7e00c1>
	/* Set frame format: 8data, 2stop bit */
	UCSR0C = (1<<USBS0)|(3<<UCSZ00);
 2a6:	8e e0       	ldi	r24, 0x0E	; 14
 2a8:	80 93 c2 00 	sts	0x00C2, r24	; 0x8000c2 <__TEXT_REGION_LENGTH__+0x7e00c2>
 2ac:	08 95       	ret

000002ae <init_USART>:
}

void init_USART(){
	
	UBRR0H = (uint8_t)(BAUD_PRESCALLER>>8);
 2ae:	10 92 c5 00 	sts	0x00C5, r1	; 0x8000c5 <__TEXT_REGION_LENGTH__+0x7e00c5>
	UBRR0L = (uint8_t)(BAUD_PRESCALLER);
 2b2:	87 e6       	ldi	r24, 0x67	; 103
 2b4:	80 93 c4 00 	sts	0x00C4, r24	; 0x8000c4 <__TEXT_REGION_LENGTH__+0x7e00c4>
	UCSR0B = (1<<RXEN0)|(1<<TXEN0);
 2b8:	88 e1       	ldi	r24, 0x18	; 24
 2ba:	80 93 c1 00 	sts	0x00C1, r24	; 0x8000c1 <__TEXT_REGION_LENGTH__+0x7e00c1>
	UCSR0C = (3<<UCSZ00);
 2be:	86 e0       	ldi	r24, 0x06	; 6
 2c0:	80 93 c2 00 	sts	0x00C2, r24	; 0x8000c2 <__TEXT_REGION_LENGTH__+0x7e00c2>
 2c4:	08 95       	ret

000002c6 <init_scheduler>:
}

void init_scheduler()
{
	SCH_Init_T1();
 2c6:	0e 94 bc 00 	call	0x178	; 0x178 <SCH_Init_T1>
	//SCH_Add_Task(temperatuur,0,1);	// moet 4000 worden@@@
	//SCH_Add_Task(ldr,0,1);			// moet 3000 worden
	//SCH_Add_Task(afstand,0,1);
	//SCH_Add_Task(upDown,0,1);		
	//SCH_Add_Task(check_input,0,1);
	SCH_Add_Task(test,0,1);
 2ca:	41 e0       	ldi	r20, 0x01	; 1
 2cc:	50 e0       	ldi	r21, 0x00	; 0
 2ce:	60 e0       	ldi	r22, 0x00	; 0
 2d0:	70 e0       	ldi	r23, 0x00	; 0
 2d2:	8b e2       	ldi	r24, 0x2B	; 43
 2d4:	91 e0       	ldi	r25, 0x01	; 1
 2d6:	0e 94 53 00 	call	0xa6	; 0xa6 <SCH_Add_Task>
	SCH_Add_Task(newRegel,0,1);
 2da:	41 e0       	ldi	r20, 0x01	; 1
 2dc:	50 e0       	ldi	r21, 0x00	; 0
 2de:	60 e0       	ldi	r22, 0x00	; 0
 2e0:	70 e0       	ldi	r23, 0x00	; 0
 2e2:	87 e4       	ldi	r24, 0x47	; 71
 2e4:	91 e0       	ldi	r25, 0x01	; 1
 2e6:	0e 94 53 00 	call	0xa6	; 0xa6 <SCH_Add_Task>
	//SCH_Delete_Task(goDown);
	//SCH_Delete_Task(goUp);
	SCH_Start();
 2ea:	0e 94 d2 00 	call	0x1a4	; 0x1a4 <SCH_Start>
 2ee:	08 95       	ret

000002f0 <init_adc>:
}

void init_adc(){
	ADCSRA |= ((1<<ADPS2)|(1<<ADPS1)|(1<<ADPS0));    //16Mhz/128 = 125Khz the ADC reference clock
 2f0:	ea e7       	ldi	r30, 0x7A	; 122
 2f2:	f0 e0       	ldi	r31, 0x00	; 0
 2f4:	80 81       	ld	r24, Z
 2f6:	87 60       	ori	r24, 0x07	; 7
 2f8:	80 83       	st	Z, r24
	ADMUX |= (1<<REFS0);                //Voltage reference from Avcc (5v)
 2fa:	ac e7       	ldi	r26, 0x7C	; 124
 2fc:	b0 e0       	ldi	r27, 0x00	; 0
 2fe:	8c 91       	ld	r24, X
 300:	80 64       	ori	r24, 0x40	; 64
 302:	8c 93       	st	X, r24
	ADCSRA |= (1<<ADEN);                //Turn on ADC
 304:	80 81       	ld	r24, Z
 306:	80 68       	ori	r24, 0x80	; 128
 308:	80 83       	st	Z, r24
	ADCSRA |= (1<<ADSC);                //Do an initial conversion because this one is the slowest and to ensure that everything is up and running
 30a:	80 81       	ld	r24, Z
 30c:	80 64       	ori	r24, 0x40	; 64
 30e:	80 83       	st	Z, r24
 310:	08 95       	ret

00000312 <init_dist>:
}

void init_dist(){
	DDRD |= _BV(PD3); // Pin 3 Trigger Output
 312:	53 9a       	sbi	0x0a, 3	; 10
	DDRD &= ~_BV(PD2); // Pin 2 Echo Input
 314:	52 98       	cbi	0x0a, 2	; 10
 316:	08 95       	ret

00000318 <init_lampjes>:
}

void init_lampjes(){
	DDRB |= _BV(PB0);	// pin0 B = output
 318:	20 9a       	sbi	0x04, 0	; 4
	DDRB |= _BV(PB1);	// pin1 B = output
 31a:	21 9a       	sbi	0x04, 1	; 4
	DDRB |= _BV(PB2);	// pin2 B = output
 31c:	22 9a       	sbi	0x04, 2	; 4
	
	PORTB = 0; // lampjes uitzetten
 31e:	15 b8       	out	0x05, r1	; 5
 320:	08 95       	ret

00000322 <setup>:
		SCH_Dispatch_Tasks();
	}
}

void setup(){
	init_connectie();
 322:	0e 94 4e 01 	call	0x29c	; 0x29c <init_connectie>
	init_adc();			// Setup the ADC
 326:	0e 94 78 01 	call	0x2f0	; 0x2f0 <init_adc>
	init_USART();			// Setup the USART
 32a:	0e 94 57 01 	call	0x2ae	; 0x2ae <init_USART>
	init_dist();
 32e:	0e 94 89 01 	call	0x312	; 0x312 <init_dist>
	init_scheduler();
 332:	0e 94 63 01 	call	0x2c6	; 0x2c6 <init_scheduler>
	init_lampjes();
 336:	0e 94 8c 01 	call	0x318	; 0x318 <init_lampjes>
 33a:	08 95       	ret

0000033c <main>:

int main(void);
void setup();

int main(void){
	setup();
 33c:	0e 94 91 01 	call	0x322	; 0x322 <setup>
	while(1) {
		SCH_Dispatch_Tasks();
 340:	0e 94 98 00 	call	0x130	; 0x130 <SCH_Dispatch_Tasks>
 344:	fd cf       	rjmp	.-6      	; 0x340 <main+0x4>

00000346 <__itoa_ncheck>:
 346:	bb 27       	eor	r27, r27
 348:	4a 30       	cpi	r20, 0x0A	; 10
 34a:	31 f4       	brne	.+12     	; 0x358 <__itoa_ncheck+0x12>
 34c:	99 23       	and	r25, r25
 34e:	22 f4       	brpl	.+8      	; 0x358 <__itoa_ncheck+0x12>
 350:	bd e2       	ldi	r27, 0x2D	; 45
 352:	90 95       	com	r25
 354:	81 95       	neg	r24
 356:	9f 4f       	sbci	r25, 0xFF	; 255
 358:	0c 94 af 01 	jmp	0x35e	; 0x35e <__utoa_common>

0000035c <__utoa_ncheck>:
 35c:	bb 27       	eor	r27, r27

0000035e <__utoa_common>:
 35e:	fb 01       	movw	r30, r22
 360:	55 27       	eor	r21, r21
 362:	aa 27       	eor	r26, r26
 364:	88 0f       	add	r24, r24
 366:	99 1f       	adc	r25, r25
 368:	aa 1f       	adc	r26, r26
 36a:	a4 17       	cp	r26, r20
 36c:	10 f0       	brcs	.+4      	; 0x372 <__utoa_common+0x14>
 36e:	a4 1b       	sub	r26, r20
 370:	83 95       	inc	r24
 372:	50 51       	subi	r21, 0x10	; 16
 374:	b9 f7       	brne	.-18     	; 0x364 <__utoa_common+0x6>
 376:	a0 5d       	subi	r26, 0xD0	; 208
 378:	aa 33       	cpi	r26, 0x3A	; 58
 37a:	08 f0       	brcs	.+2      	; 0x37e <__utoa_common+0x20>
 37c:	a9 5d       	subi	r26, 0xD9	; 217
 37e:	a1 93       	st	Z+, r26
 380:	00 97       	sbiw	r24, 0x00	; 0
 382:	79 f7       	brne	.-34     	; 0x362 <__utoa_common+0x4>
 384:	b1 11       	cpse	r27, r1
 386:	b1 93       	st	Z+, r27
 388:	11 92       	st	Z+, r1
 38a:	cb 01       	movw	r24, r22
 38c:	0c 94 c8 01 	jmp	0x390	; 0x390 <strrev>

00000390 <strrev>:
 390:	dc 01       	movw	r26, r24
 392:	fc 01       	movw	r30, r24
 394:	67 2f       	mov	r22, r23
 396:	71 91       	ld	r23, Z+
 398:	77 23       	and	r23, r23
 39a:	e1 f7       	brne	.-8      	; 0x394 <strrev+0x4>
 39c:	32 97       	sbiw	r30, 0x02	; 2
 39e:	04 c0       	rjmp	.+8      	; 0x3a8 <strrev+0x18>
 3a0:	7c 91       	ld	r23, X
 3a2:	6d 93       	st	X+, r22
 3a4:	70 83       	st	Z, r23
 3a6:	62 91       	ld	r22, -Z
 3a8:	ae 17       	cp	r26, r30
 3aa:	bf 07       	cpc	r27, r31
 3ac:	c8 f3       	brcs	.-14     	; 0x3a0 <strrev+0x10>
 3ae:	08 95       	ret

000003b0 <_exit>:
 3b0:	f8 94       	cli

000003b2 <__stop_program>:
 3b2:	ff cf       	rjmp	.-2      	; 0x3b2 <__stop_program>
